target datalayout = "e-m:e-p270:32:32-p271:32:32-p272:64:64-i64:64-i128:128-f80:128-n8:16:32:64-S128"
target triple = "x86_64-pc-linux-gnu"

%struct.stmm_table = type { ptr, ptr, i32, i32, i32, i32, double, ptr, ptr }
%struct.stmm_table_entry = type { ptr, ptr, ptr }

; Function Attrs: nounwind uwtable
define internal i32 @Abc_AbsInt(i32 noundef %0) #0 {
  %2 = alloca i32, align 4
  store i32 %0, ptr %2, align 4
  %3 = load i32, ptr %2, align 4
  %4 = icmp slt i32 %3, 0
  br i1 %4, label %5, label %8

5:                                                ; preds = %1
  %6 = load i32, ptr %2, align 4
  %7 = sub nsw i32 0, %6
  br label %10

8:                                                ; preds = %1
  %9 = load i32, ptr %2, align 4
  br label %10

10:                                               ; preds = %8, %5
  %11 = phi i32 [ %7, %5 ], [ %9, %8 ]
  ret i32 %11
}

; Function Attrs: nounwind uwtable
define i32 @stmm_add_direct(ptr noundef %0, ptr noundef %1, ptr noundef %2) #0 {
  %4 = alloca i32, align 4
  %5 = alloca ptr, align 8
  %6 = alloca ptr, align 8
  %7 = alloca ptr, align 8
  %8 = alloca i32, align 4
  %9 = alloca ptr, align 8
  store ptr %0, ptr %5, align 8
  store ptr %1, ptr %6, align 8
  store ptr %2, ptr %7, align 8
  %10 = load ptr, ptr %5, align 8
  %11 = getelementptr inbounds %struct.stmm_table, ptr %10, i32 0, i32 1
  %12 = load ptr, ptr %11, align 8
  %13 = icmp eq ptr %12, @stmm_ptrhash
  br i1 %13, label %14, label %24

14:                                               ; preds = %3
  %15 = load ptr, ptr %6, align 8
  %16 = ptrtoint ptr %15 to i64
  %17 = lshr i64 %16, 2
  %18 = load ptr, ptr %5, align 8
  %19 = getelementptr inbounds %struct.stmm_table, ptr %18, i32 0, i32 2
  %20 = load i32, ptr %19, align 8
  %21 = sext i32 %20 to i64
  %22 = urem i64 %17, %21
  %23 = trunc i64 %22 to i32
  br label %49

24:                                               ; preds = %3
  %25 = load ptr, ptr %5, align 8
  %26 = getelementptr inbounds %struct.stmm_table, ptr %25, i32 0, i32 1
  %27 = load ptr, ptr %26, align 8
  %28 = icmp eq ptr %27, @stmm_numhash
  br i1 %28, label %29, label %38

29:                                               ; preds = %24
  %30 = load ptr, ptr %6, align 8
  %31 = ptrtoint ptr %30 to i64
  %32 = trunc i64 %31 to i32
  %33 = call i32 @Abc_AbsInt(i32 noundef %32)
  %34 = load ptr, ptr %5, align 8
  %35 = getelementptr inbounds %struct.stmm_table, ptr %34, i32 0, i32 2
  %36 = load i32, ptr %35, align 8
  %37 = srem i32 %33, %36
  br label %47

38:                                               ; preds = %24
  %39 = load ptr, ptr %5, align 8
  %40 = getelementptr inbounds %struct.stmm_table, ptr %39, i32 0, i32 1
  %41 = load ptr, ptr %40, align 8
  %42 = load ptr, ptr %6, align 8
  %43 = load ptr, ptr %5, align 8
  %44 = getelementptr inbounds %struct.stmm_table, ptr %43, i32 0, i32 2
  %45 = load i32, ptr %44, align 8
  %46 = call i32 %41(ptr noundef %42, i32 noundef %45)
  br label %47

47:                                               ; preds = %38, %29
  %48 = phi i32 [ %37, %29 ], [ %46, %38 ]
  br label %49

49:                                               ; preds = %47, %14
  %50 = phi i32 [ %23, %14 ], [ %48, %47 ]
  store i32 %50, ptr %8, align 4
  %51 = load ptr, ptr %5, align 8
  %52 = getelementptr inbounds %struct.stmm_table, ptr %51, i32 0, i32 3
  %53 = load i32, ptr %52, align 4
  %54 = load ptr, ptr %5, align 8
  %55 = getelementptr inbounds %struct.stmm_table, ptr %54, i32 0, i32 2
  %56 = load i32, ptr %55, align 8
  %57 = sdiv i32 %53, %56
  %58 = load ptr, ptr %5, align 8
  %59 = getelementptr inbounds %struct.stmm_table, ptr %58, i32 0, i32 4
  %60 = load i32, ptr %59, align 8
  %61 = icmp sge i32 %57, %60
  br i1 %61, label %62, label %68

62:                                               ; preds = %49
  %63 = load ptr, ptr %5, align 8
  %64 = call i32 @rehash(ptr noundef %63)
  %65 = icmp eq i32 %64, -10000
  br i1 %65, label %66, label %67

66:                                               ; preds = %62
  store i32 -10000, ptr %4, align 4
  br label %144

67:                                               ; preds = %62
  br label %68

68:                                               ; preds = %67, %49
  %69 = load ptr, ptr %5, align 8
  %70 = getelementptr inbounds %struct.stmm_table, ptr %69, i32 0, i32 1
  %71 = load ptr, ptr %70, align 8
  %72 = icmp eq ptr %71, @stmm_ptrhash
  br i1 %72, label %73, label %83

73:                                               ; preds = %68
  %74 = load ptr, ptr %6, align 8
  %75 = ptrtoint ptr %74 to i64
  %76 = lshr i64 %75, 2
  %77 = load ptr, ptr %5, align 8
  %78 = getelementptr inbounds %struct.stmm_table, ptr %77, i32 0, i32 2
  %79 = load i32, ptr %78, align 8
  %80 = sext i32 %79 to i64
  %81 = urem i64 %76, %80
  %82 = trunc i64 %81 to i32
  br label %108

83:                                               ; preds = %68
  %84 = load ptr, ptr %5, align 8
  %85 = getelementptr inbounds %struct.stmm_table, ptr %84, i32 0, i32 1
  %86 = load ptr, ptr %85, align 8
  %87 = icmp eq ptr %86, @stmm_numhash
  br i1 %87, label %88, label %97

88:                                               ; preds = %83
  %89 = load ptr, ptr %6, align 8
  %90 = ptrtoint ptr %89 to i64
  %91 = trunc i64 %90 to i32
  %92 = call i32 @Abc_AbsInt(i32 noundef %91)
  %93 = load ptr, ptr %5, align 8
  %94 = getelementptr inbounds %struct.stmm_table, ptr %93, i32 0, i32 2
  %95 = load i32, ptr %94, align 8
  %96 = srem i32 %92, %95
  br label %106

97:                                               ; preds = %83
  %98 = load ptr, ptr %5, align 8
  %99 = getelementptr inbounds %struct.stmm_table, ptr %98, i32 0, i32 1
  %100 = load ptr, ptr %99, align 8
  %101 = load ptr, ptr %6, align 8
  %102 = load ptr, ptr %5, align 8
  %103 = getelementptr inbounds %struct.stmm_table, ptr %102, i32 0, i32 2
  %104 = load i32, ptr %103, align 8
  %105 = call i32 %100(ptr noundef %101, i32 noundef %104)
  br label %106

106:                                              ; preds = %97, %88
  %107 = phi i32 [ %96, %88 ], [ %105, %97 ]
  br label %108

108:                                              ; preds = %106, %73
  %109 = phi i32 [ %82, %73 ], [ %107, %106 ]
  store i32 %109, ptr %8, align 4
  %110 = load ptr, ptr %5, align 8
  %111 = getelementptr inbounds %struct.stmm_table, ptr %110, i32 0, i32 8
  %112 = load ptr, ptr %111, align 8
  %113 = call ptr @Extra_MmFixedEntryFetch(ptr noundef %112)
  store ptr %113, ptr %9, align 8
  %114 = load ptr, ptr %9, align 8
  %115 = icmp eq ptr %114, null
  br i1 %115, label %116, label %117

116:                                              ; preds = %108
  store i32 -10000, ptr %4, align 4
  br label %144

117:                                              ; preds = %108
  %118 = load ptr, ptr %6, align 8
  %119 = load ptr, ptr %9, align 8
  %120 = getelementptr inbounds %struct.stmm_table_entry, ptr %119, i32 0, i32 0
  store ptr %118, ptr %120, align 8
  %121 = load ptr, ptr %7, align 8
  %122 = load ptr, ptr %9, align 8
  %123 = getelementptr inbounds %struct.stmm_table_entry, ptr %122, i32 0, i32 1
  store ptr %121, ptr %123, align 8
  %124 = load ptr, ptr %5, align 8
  %125 = getelementptr inbounds %struct.stmm_table, ptr %124, i32 0, i32 7
  %126 = load ptr, ptr %125, align 8
  %127 = load i32, ptr %8, align 4
  %128 = sext i32 %127 to i64
  %129 = getelementptr inbounds ptr, ptr %126, i64 %128
  %130 = load ptr, ptr %129, align 8
  %131 = load ptr, ptr %9, align 8
  %132 = getelementptr inbounds %struct.stmm_table_entry, ptr %131, i32 0, i32 2
  store ptr %130, ptr %132, align 8
  %133 = load ptr, ptr %9, align 8
  %134 = load ptr, ptr %5, align 8
  %135 = getelementptr inbounds %struct.stmm_table, ptr %134, i32 0, i32 7
  %136 = load ptr, ptr %135, align 8
  %137 = load i32, ptr %8, align 4
  %138 = sext i32 %137 to i64
  %139 = getelementptr inbounds ptr, ptr %136, i64 %138
  store ptr %133, ptr %139, align 8
  %140 = load ptr, ptr %5, align 8
  %141 = getelementptr inbounds %struct.stmm_table, ptr %140, i32 0, i32 3
  %142 = load i32, ptr %141, align 4
  %143 = add nsw i32 %142, 1
  store i32 %143, ptr %141, align 4
  store i32 1, ptr %4, align 4
  br label %144

144:                                              ; preds = %117, %116, %66
  %145 = load i32, ptr %4, align 4
  ret i32 %145
}