; Function Attrs: nounwind uwtable
define range(i32 -10000, 2) i32 @stmm_add_direct(ptr noundef captures(none) %0, ptr noundef %1, ptr noundef %2) local_unnamed_addr #0 {
  %4 = getelementptr inbounds nuw i8, ptr %0, i64 8
  %5 = load ptr, ptr %4, align 8
  %6 = icmp eq ptr %5, @stmm_ptrhash
  %7 = icmp eq ptr %5, @stmm_numhash
  %or.cond = or i1 %6, %7
  br i1 %or.cond, label %12, label %8

8:                                                ; preds = %3
  %9 = getelementptr inbounds nuw i8, ptr %0, i64 16
  %10 = load i32, ptr %9, align 8
  %11 = tail call i32 %5(ptr noundef %1, i32 noundef %10) #13
  br label %12

12:                                               ; preds = %3, %8
  %13 = getelementptr inbounds nuw i8, ptr %0, i64 20
  %14 = load i32, ptr %13, align 4
  %15 = getelementptr inbounds nuw i8, ptr %0, i64 16
  %16 = load i32, ptr %15, align 8
  %17 = sdiv i32 %14, %16
  %18 = getelementptr inbounds nuw i8, ptr %0, i64 24
  %19 = load i32, ptr %18, align 8
  %.not = icmp slt i32 %17, %19
  br i1 %.not, label %23, label %20

20:                                               ; preds = %12
  %21 = tail call fastcc i32 @rehash(ptr noundef nonnull %0)
  %22 = icmp eq i32 %21, -10000
  br i1 %22, label %62, label %23

23:                                               ; preds = %20, %12
  %24 = load ptr, ptr %4, align 8
  %25 = icmp eq ptr %24, @stmm_ptrhash
  br i1 %25, label %26, label %33

26:                                               ; preds = %23
  %27 = ptrtoint ptr %1 to i64
  %28 = lshr i64 %27, 2
  %29 = load i32, ptr %15, align 8
  %30 = sext i32 %29 to i64
  %31 = urem i64 %28, %30
  %32 = trunc i64 %31 to i32
  br label %44

33:                                               ; preds = %23
  %34 = icmp eq ptr %24, @stmm_numhash
  br i1 %34, label %35, label %41

35:                                               ; preds = %33
  %36 = ptrtoint ptr %1 to i64
  %37 = trunc i64 %36 to i32
  %38 = tail call range(i32 0, -2147483648) i32 @llvm.abs.i32(i32 %37, i1 true)
  %39 = load i32, ptr %15, align 8
  %40 = srem i32 %38, %39
  br label %44

41:                                               ; preds = %33
  %42 = load i32, ptr %15, align 8
  %43 = tail call i32 %24(ptr noundef %1, i32 noundef %42) #13
  br label %44

44:                                               ; preds = %35, %41, %26
  %45 = phi i32 [ %32, %26 ], [ %40, %35 ], [ %43, %41 ]
  %46 = getelementptr inbounds nuw i8, ptr %0, i64 48
  %47 = load ptr, ptr %46, align 8
  %48 = tail call ptr @Extra_MmFixedEntryFetch(ptr noundef %47) #13
  %49 = icmp eq ptr %48, null
  br i1 %49, label %62, label %50

50:                                               ; preds = %44
  store ptr %1, ptr %48, align 8
  %51 = getelementptr inbounds nuw i8, ptr %48, i64 8
  store ptr %2, ptr %51, align 8
  %52 = getelementptr inbounds nuw i8, ptr %0, i64 40
  %53 = load ptr, ptr %52, align 8
  %54 = sext i32 %45 to i64
  %55 = getelementptr inbounds ptr, ptr %53, i64 %54
  %56 = load ptr, ptr %55, align 8
  %57 = getelementptr inbounds nuw i8, ptr %48, i64 16
  store ptr %56, ptr %57, align 8
  %58 = load ptr, ptr %52, align 8
  %59 = getelementptr inbounds ptr, ptr %58, i64 %54
  store ptr %48, ptr %59, align 8
  %60 = load i32, ptr %13, align 4
  %61 = add nsw i32 %60, 1
  store i32 %61, ptr %13, align 4
  br label %62

62:                                               ; preds = %44, %20, %50
  %.0 = phi i32 [ 1, %50 ], [ -10000, %20 ], [ -10000, %44 ]
  ret i32 %.0
}